; Function Attrs: mustprogress nounwind uwtable
define dso_local noundef nonnull ptr @_ZN4llvm27createPBQPRegisterAllocatorEPc(ptr noundef %0) local_unnamed_addr #0 {
  %2 = tail call noalias noundef nonnull dereferenceable(448) ptr @_Znwm(i64 noundef 448) #23
  %3 = getelementptr inbounds nuw i8, ptr %2, i64 8
  store ptr null, ptr %3, align 8
  %4 = getelementptr inbounds nuw i8, ptr %2, i64 16
  store ptr @_ZN12_GLOBAL__N_112RegAllocPBQP2IDE, ptr %4, align 8
  %5 = getelementptr inbounds nuw i8, ptr %2, i64 24
  store i32 2, ptr %5, align 8
  %6 = getelementptr inbounds nuw i8, ptr %2, i64 32
  tail call void @llvm.memset.p0.i64(ptr noundef nonnull align 8 dereferenceable(24) %6, i8 0, i64 24, i1 false)
  store ptr getelementptr inbounds nuw inrange(-16, 176) (i8, ptr @_ZTVN12_GLOBAL__N_112RegAllocPBQPE, i64 16), ptr %2, align 8
  %7 = getelementptr inbounds nuw i8, ptr %2, i64 56
  store ptr %0, ptr %7, align 8
  %8 = getelementptr inbounds nuw i8, ptr %2, i64 72
  store i32 0, ptr %8, align 8
  %9 = getelementptr inbounds nuw i8, ptr %2, i64 80
  store ptr null, ptr %9, align 8
  %10 = getelementptr inbounds nuw i8, ptr %2, i64 88
  store ptr %8, ptr %10, align 8
  %11 = getelementptr inbounds nuw i8, ptr %2, i64 96
  store ptr %8, ptr %11, align 8
  %12 = getelementptr inbounds nuw i8, ptr %2, i64 104
  store i64 0, ptr %12, align 8
  %13 = getelementptr inbounds nuw i8, ptr %2, i64 120
  store i32 0, ptr %13, align 8
  %14 = getelementptr inbounds nuw i8, ptr %2, i64 128
  store ptr null, ptr %14, align 8
  %15 = getelementptr inbounds nuw i8, ptr %2, i64 136
  store ptr %13, ptr %15, align 8
  %16 = getelementptr inbounds nuw i8, ptr %2, i64 144
  store ptr %13, ptr %16, align 8
  %17 = getelementptr inbounds nuw i8, ptr %2, i64 152
  store i64 0, ptr %17, align 8
  %18 = getelementptr inbounds nuw i8, ptr %2, i64 160
  %19 = getelementptr inbounds nuw i8, ptr %2, i64 192
  store ptr %19, ptr %18, align 8
  %20 = getelementptr inbounds nuw i8, ptr %2, i64 168
  store ptr %19, ptr %20, align 8
  %21 = getelementptr inbounds nuw i8, ptr %2, i64 176
  store i32 32, ptr %21, align 8
  %22 = getelementptr inbounds nuw i8, ptr %2, i64 180
  store i32 0, ptr %22, align 4
  %23 = getelementptr inbounds nuw i8, ptr %2, i64 184
  store i32 0, ptr %23, align 8
  %24 = tail call noundef ptr @_ZN4llvm12PassRegistry15getPassRegistryEv() #24
  tail call void @_ZN4llvm36initializeSlotIndexesWrapperPassPassERNS_12PassRegistryE(ptr noundef nonnull align 8 dereferenceable(160) %24) #24
  %25 = tail call noundef ptr @_ZN4llvm12PassRegistry15getPassRegistryEv() #24
  tail call void @_ZN4llvm38initializeLiveIntervalsWrapperPassPassERNS_12PassRegistryE(ptr noundef nonnull align 8 dereferenceable(160) %25) #24
  %26 = tail call noundef ptr @_ZN4llvm12PassRegistry15getPassRegistryEv() #24
  tail call void @_ZN4llvm24initializeLiveStacksPassERNS_12PassRegistryE(ptr noundef nonnull align 8 dereferenceable(160) %26) #24
  %27 = tail call noundef ptr @_ZN4llvm12PassRegistry15getPassRegistryEv() #24
  tail call void @_ZN4llvm24initializeVirtRegMapPassERNS_12PassRegistryE(ptr noundef nonnull align 8 dereferenceable(160) %27) #24
  ret ptr %2
}